target datalayout = "e-m:e-p270:32:32-p271:32:32-p272:64:64-i64:64-i128:128-f80:128-n8:16:32:64-S128"
target triple = "x86_64-pc-linux-gnu"

%struct.slurm_conf_t = type { i64, ptr, i16, ptr, ptr, ptr, ptr, ptr, i16, ptr, ptr, ptr, ptr, ptr, ptr, ptr, i16, ptr, ptr, ptr, ptr, i16, ptr, ptr, ptr, i64, ptr, ptr, ptr, ptr, i16, ptr, ptr, i16, i32, ptr, i32, ptr, i32, i32, ptr, ptr, i64, i64, ptr, i16, i16, ptr, i32, i32, ptr, i32, ptr, i32, i16, i16, i16, ptr, i16, i16, ptr, ptr, i32, i16, i16, ptr, i32, i16, ptr, ptr, ptr, ptr, i16, ptr, ptr, ptr, ptr, i32, ptr, ptr, ptr, ptr, i16, i16, ptr, i32, i32, i32, i16, i16, ptr, ptr, i16, ptr, ptr, i32, i32, i32, i32, i32, i64, i32, i32, i16, ptr, ptr, i32, ptr, ptr, ptr, i16, i32, ptr, ptr, i16, ptr, ptr, i32, i16, ptr, ptr, ptr, ptr, i32, i32, i16, i16, i32, ptr, i16, ptr, i32, i32, i32, i32, i32, i32, ptr, i16, ptr, ptr, i32, i16, ptr, i32, i16, i16, ptr, ptr, ptr, i16, ptr, ptr, ptr, ptr, i16, i16, ptr, i16, ptr, i16, ptr, i16, ptr, i16, ptr, ptr, ptr, ptr, i16, ptr, ptr, ptr, i32, ptr, i32, ptr, ptr, i16, ptr, ptr, i32, i16, ptr, ptr, i16, i16, ptr, i16, ptr, ptr, ptr, i32, ptr, i16, i16, ptr, ptr, ptr, ptr, ptr, ptr, ptr, ptr, i16, i32, i16, ptr, ptr, ptr, ptr, i32, ptr, ptr, ptr, i16, ptr, ptr, ptr, i16, ptr, i16, ptr, i16, i16, ptr }

@plugin_type = dso_local constant [26 x i8] c"node_features/knl_generic\00", align 16
@allowed_uid = internal global ptr null, align 8
@allowed_uid_cnt = internal global i32 0, align 4
@slurm_conf = external global %struct.slurm_conf_t, align 8
@.str.109 = private unnamed_addr constant [70 x i8] c"%s: %s: Change in KNL mode not supported. No RebootProgram configured\00", align 1
@__func__.node_features_p_user_update = private unnamed_addr constant [28 x i8] c"node_features_p_user_update\00", align 1
@.str.110 = private unnamed_addr constant [69 x i8] c"%s: %s: NODE_FEATURES: UID %u is not allowed to update node features\00", align 1

; Function Attrs: nounwind uwtable
define dso_local zeroext i1 @node_features_p_user_update(i32 noundef %0) #0 {
  %2 = alloca i1, align 1
  %3 = alloca i32, align 4
  %4 = alloca i32, align 4
  %5 = alloca i32, align 4
  store i32 %0, ptr %3, align 4
  call void @llvm.lifetime.start.p0(i64 4, ptr %4) #9
  %6 = load ptr, ptr getelementptr inbounds nuw (%struct.slurm_conf_t, ptr @slurm_conf, i32 0, i32 149), align 8
  %7 = icmp ne ptr %6, null
  br i1 %7, label %8, label %13

8:                                                ; preds = %1
  %9 = load ptr, ptr getelementptr inbounds nuw (%struct.slurm_conf_t, ptr @slurm_conf, i32 0, i32 149), align 8
  %10 = getelementptr inbounds i8, ptr %9, i64 0
  %11 = load i8, ptr %10, align 1
  %12 = icmp ne i8 %11, 0
  br i1 %12, label %24, label %13

13:                                               ; preds = %8, %1
  br label %14

14:                                               ; preds = %13
  br label %15

15:                                               ; preds = %14
  %16 = call i32 @get_log_level()
  %17 = icmp sge i32 %16, 3
  br i1 %17, label %18, label %19

18:                                               ; preds = %15
  call void (i32, ptr, ...) @log_var(i32 noundef 3, ptr noundef @.str.109, ptr noundef @plugin_type, ptr noundef @__func__.node_features_p_user_update)
  br label %19

19:                                               ; preds = %18, %15
  br label %20

20:                                               ; preds = %19
  br label %21

21:                                               ; preds = %20
  br label %22

22:                                               ; preds = %21
  br label %23

23:                                               ; preds = %22
  store i1 false, ptr %2, align 1
  store i32 1, ptr %5, align 4
  br label %63

24:                                               ; preds = %8
  %25 = load i32, ptr @allowed_uid_cnt, align 4
  %26 = icmp eq i32 %25, 0
  br i1 %26, label %27, label %28

27:                                               ; preds = %24
  store i1 true, ptr %2, align 1
  store i32 1, ptr %5, align 4
  br label %63

28:                                               ; preds = %24
  store i32 0, ptr %4, align 4
  br label %29

29:                                               ; preds = %43, %28
  %30 = load i32, ptr %4, align 4
  %31 = load i32, ptr @allowed_uid_cnt, align 4
  %32 = icmp slt i32 %30, %31
  br i1 %32, label %33, label %46

33:                                               ; preds = %29
  %34 = load ptr, ptr @allowed_uid, align 8
  %35 = load i32, ptr %4, align 4
  %36 = sext i32 %35 to i64
  %37 = getelementptr inbounds i32, ptr %34, i64 %36
  %38 = load i32, ptr %37, align 4
  %39 = load i32, ptr %3, align 4
  %40 = icmp eq i32 %38, %39
  br i1 %40, label %41, label %42

41:                                               ; preds = %33
  store i1 true, ptr %2, align 1
  store i32 1, ptr %5, align 4
  br label %63

42:                                               ; preds = %33
  br label %43

43:                                               ; preds = %42
  %44 = load i32, ptr %4, align 4
  %45 = add nsw i32 %44, 1
  store i32 %45, ptr %4, align 4
  br label %29, !llvm.loop !51

46:                                               ; preds = %29
  br label %47

47:                                               ; preds = %46
  %48 = load i64, ptr getelementptr inbounds nuw (%struct.slurm_conf_t, ptr @slurm_conf, i32 0, i32 42), align 8
  %49 = and i64 %48, 140737488355328
  %50 = icmp ne i64 %49, 0
  br i1 %50, label %51, label %60

51:                                               ; preds = %47
  br label %52

52:                                               ; preds = %51
  %53 = call i32 @get_log_level()
  %54 = icmp sge i32 %53, 4
  br i1 %54, label %55, label %57

55:                                               ; preds = %52
  %56 = load i32, ptr %3, align 4
  call void (i32, ptr, ...) @log_var(i32 noundef 4, ptr noundef @.str.110, ptr noundef @plugin_type, ptr noundef @__func__.node_features_p_user_update, i32 noundef %56)
  br label %57

57:                                               ; preds = %55, %52
  br label %58

58:                                               ; preds = %57
  br label %59

59:                                               ; preds = %58
  br label %60

60:                                               ; preds = %59, %47
  br label %61

61:                                               ; preds = %60
  br label %62

62:                                               ; preds = %61
  store i1 false, ptr %2, align 1
  store i32 1, ptr %5, align 4
  br label %63

63:                                               ; preds = %62, %41, %27, %23
  call void @llvm.lifetime.end.p0(i64 4, ptr %4) #9
  %64 = load i1, ptr %2, align 1
  ret i1 %64
}