; Function Attrs: nounwind uwtable
define dso_local noundef zeroext i1 @node_features_p_user_update(i32 noundef %0) local_unnamed_addr #0 {
  %2 = load ptr, ptr getelementptr inbounds nuw (i8, ptr @slurm_conf, i64 968), align 8
  %.not = icmp eq ptr %2, null
  br i1 %.not, label %5, label %3

3:                                                ; preds = %1
  %4 = load i8, ptr %2, align 1
  %.not7 = icmp eq i8 %4, 0
  br i1 %.not7, label %5, label %9

5:                                                ; preds = %3, %1
  %6 = tail call i32 @get_log_level() #14
  %7 = icmp sgt i32 %6, 2
  br i1 %7, label %8, label %.loopexit

8:                                                ; preds = %5
  tail call void (i32, ptr, ...) @log_var(i32 noundef 3, ptr noundef nonnull @.str.109, ptr noundef nonnull @plugin_type, ptr noundef nonnull @__func__.node_features_p_user_update) #14
  br label %.loopexit

9:                                                ; preds = %3
  %10 = load i32, ptr @allowed_uid_cnt, align 4
  %11 = icmp eq i32 %10, 0
  br i1 %11, label %.loopexit, label %.preheader

.preheader:                                       ; preds = %9
  %12 = icmp sgt i32 %10, 0
  br i1 %12, label %.lr.ph, label %._crit_edge

.lr.ph:                                           ; preds = %.preheader
  %13 = load ptr, ptr @allowed_uid, align 8
  %wide.trip.count = zext nneg i32 %10 to i64
  br label %15

14:                                               ; preds = %15
  %indvars.iv.next = add nuw nsw i64 %indvars.iv, 1
  %exitcond.not = icmp eq i64 %indvars.iv.next, %wide.trip.count
  br i1 %exitcond.not, label %._crit_edge, label %15, !llvm.loop !47

15:                                               ; preds = %.lr.ph, %14
  %indvars.iv = phi i64 [ 0, %.lr.ph ], [ %indvars.iv.next, %14 ]
  %16 = getelementptr inbounds nuw i32, ptr %13, i64 %indvars.iv
  %17 = load i32, ptr %16, align 4
  %18 = icmp eq i32 %17, %0
  br i1 %18, label %.loopexit, label %14

._crit_edge:                                      ; preds = %14, %.preheader
  %19 = load i64, ptr getelementptr inbounds nuw (i8, ptr @slurm_conf, i64 320), align 8
  %20 = and i64 %19, 140737488355328
  %.not8 = icmp eq i64 %20, 0
  br i1 %.not8, label %.loopexit, label %21

21:                                               ; preds = %._crit_edge
  %22 = tail call i32 @get_log_level() #14
  %23 = icmp sgt i32 %22, 3
  br i1 %23, label %24, label %.loopexit

24:                                               ; preds = %21
  tail call void (i32, ptr, ...) @log_var(i32 noundef 4, ptr noundef nonnull @.str.110, ptr noundef nonnull @plugin_type, ptr noundef nonnull @__func__.node_features_p_user_update, i32 noundef %0) #14
  br label %.loopexit

.loopexit:                                        ; preds = %15, %._crit_edge, %24, %21, %9, %5, %8
  %.05 = phi i1 [ false, %8 ], [ false, %5 ], [ true, %9 ], [ false, %21 ], [ false, %24 ], [ false, %._crit_edge ], [ true, %15 ]
  ret i1 %.05
}